; ModuleID = '50/282.c'
source_filename = "50/282.c"
target datalayout = "e-m:e-p270:32:32-p271:32:32-p272:64:64-i64:64-f80:128-n8:16:32:64-S128"
target triple = "x86_64-pc-linux-gnu"

@.str = private unnamed_addr constant [3 x i8] c"%d\00", align 1
@.str.1 = private unnamed_addr constant [4 x i8] c"%d\0A\00", align 1

; Function Attrs: noinline nounwind uwtable
define dso_local i32 @main() #0 {
  %1 = alloca i32, align 4
  %2 = alloca i32, align 4
  %3 = alloca i32, align 4
  store i32 0, i32* %1, align 4
  %4 = call i32 (i8*, ...) @__isoc99_scanf(i8* getelementptr inbounds ([3 x i8], [3 x i8]* @.str, i64 0, i64 0), i32* %2)
  %5 = load i32, i32* %2, align 4
  %6 = add nsw i32 %5, 12
  store i32 %6, i32* %2, align 4
  store i32 1, i32* %3, align 4
  br label %7

7:                                                ; preds = %31, %0
  %8 = load i32, i32* %3, align 4
  %9 = icmp sle i32 %8, 12
  br i1 %9, label %10, label %34

10:                                               ; preds = %7
  %11 = load i32, i32* %3, align 4
  %12 = sub nsw i32 %11, 1
  switch i32 %12, label %20 [
    i32 1, label %13
    i32 3, label %13
    i32 5, label %13
    i32 7, label %13
    i32 8, label %13
    i32 10, label %13
    i32 12, label %13
    i32 2, label %16
    i32 0, label %19
  ]

13:                                               ; preds = %10, %10, %10, %10, %10, %10, %10
  %14 = load i32, i32* %2, align 4
  %15 = add nsw i32 %14, 31
  store i32 %15, i32* %2, align 4
  br label %23

16:                                               ; preds = %10
  %17 = load i32, i32* %2, align 4
  %18 = add nsw i32 %17, 28
  store i32 %18, i32* %2, align 4
  br label %23

19:                                               ; preds = %10
  br label %23

20:                                               ; preds = %10
  %21 = load i32, i32* %2, align 4
  %22 = add nsw i32 %21, 30
  store i32 %22, i32* %2, align 4
  br label %23

23:                                               ; preds = %20, %19, %16, %13
  %24 = load i32, i32* %2, align 4
  %25 = srem i32 %24, 7
  %26 = icmp eq i32 %25, 5
  br i1 %26, label %27, label %30

27:                                               ; preds = %23
  %28 = load i32, i32* %3, align 4
  %29 = call i32 (i8*, ...) @printf(i8* getelementptr inbounds ([4 x i8], [4 x i8]* @.str.1, i64 0, i64 0), i32 %28)
  br label %30

30:                                               ; preds = %27, %23
  br label %31

31:                                               ; preds = %30
  %32 = load i32, i32* %3, align 4
  %33 = add nsw i32 %32, 1
  store i32 %33, i32* %3, align 4
  br label %7

34:                                               ; preds = %7
  ret i32 0
}

declare dso_local i32 @__isoc99_scanf(i8*, ...) #1

declare dso_local i32 @printf(i8*, ...) #1


!llvm.module.flags = !{!0}
!llvm.ident = !{!1}

!0 = !{i32 1, !"wchar_size", i32 4}
!1 = !{!"clang version 10.0.0-4ubuntu1 "}
